; Function Attrs: nounwind uwtable
define hidden i32 @lj_lib_optint(ptr noundef %0, i32 noundef %1, i32 noundef %2) local_unnamed_addr #0 {
  %4 = getelementptr inbounds nuw i8, ptr %0, i64 32
  %5 = load ptr, ptr %4, align 8, !tbaa !17
  %6 = sext i32 %1 to i64
  %7 = getelementptr inbounds %union.TValue, ptr %5, i64 %6
  %8 = getelementptr inbounds i8, ptr %7, i64 -8
  %9 = getelementptr inbounds nuw i8, ptr %0, i64 40
  %10 = load ptr, ptr %9, align 8, !tbaa !16
  %11 = icmp ult ptr %8, %10
  br i1 %11, label %12, label %26

12:                                               ; preds = %3
  %13 = load i64, ptr %8, align 8, !tbaa !14
  %14 = icmp eq i64 %13, -1
  br i1 %14, label %26, label %15

15:                                               ; preds = %12
  %16 = ashr i64 %13, 47
  %17 = icmp ult i64 %16, -13
  %18 = bitcast i64 %13 to double
  br i1 %17, label %lj_lib_checkint.exit, label %19

19:                                               ; preds = %15
  %20 = icmp eq i64 %16, -5
  br i1 %20, label %lj_strscan_numberobj.exit.i, label %lj_strscan_numberobj.exit.thread.i

lj_strscan_numberobj.exit.i:                      ; preds = %19
  %21 = and i64 %13, 140737488355327
  %22 = inttoptr i64 %21 to ptr
  %23 = tail call i32 @lj_strscan_num(ptr noundef %22, ptr noundef nonnull %8) #8
  %.not11.i = icmp eq i32 %23, 0
  br i1 %.not11.i, label %lj_strscan_numberobj.exit.thread.i, label %lj_strscan_numberobj.exit.lj_strscan_numberobj.exit.thread9_crit_edge.i

lj_strscan_numberobj.exit.lj_strscan_numberobj.exit.thread9_crit_edge.i: ; preds = %lj_strscan_numberobj.exit.i
  %.pre.i = load double, ptr %8, align 8, !tbaa !14
  br label %lj_lib_checkint.exit

lj_strscan_numberobj.exit.thread.i:               ; preds = %lj_strscan_numberobj.exit.i, %19
  tail call void @lj_err_argt(ptr noundef nonnull %0, i32 noundef %1, i32 noundef 3) #9
  unreachable

lj_lib_checkint.exit:                             ; preds = %15, %lj_strscan_numberobj.exit.lj_strscan_numberobj.exit.thread9_crit_edge.i
  %24 = phi double [ %.pre.i, %lj_strscan_numberobj.exit.lj_strscan_numberobj.exit.thread9_crit_edge.i ], [ %18, %15 ]
  %25 = fptosi double %24 to i32
  br label %26

26:                                               ; preds = %3, %12, %lj_lib_checkint.exit
  %27 = phi i32 [ %25, %lj_lib_checkint.exit ], [ %2, %12 ], [ %2, %3 ]
  ret i32 %27
}